target datalayout = "e-m:e-p270:32:32-p271:32:32-p272:64:64-i64:64-i128:128-f80:128-n8:16:32:64-S128"
target triple = "x86_64-pc-linux-gnu"

%"class.gmx::MessageStringCollector" = type { %"class.std::unique_ptr" }
%"class.std::unique_ptr" = type { %"struct.std::__uniq_ptr_data" }
%"struct.std::__uniq_ptr_data" = type { %"class.std::__uniq_ptr_impl" }
%"class.std::__uniq_ptr_impl" = type { %"class.std::tuple" }
%"class.std::tuple" = type { %"struct.std::_Tuple_impl" }
%"struct.std::_Tuple_impl" = type { %"struct.std::_Head_base.1" }
%"struct.std::_Head_base.1" = type { ptr }
%"class.std::__cxx11::basic_string" = type { %"struct.std::__cxx11::basic_string<char>::_Alloc_hider", i64, %union.anon }
%"struct.std::__cxx11::basic_string<char>::_Alloc_hider" = type { ptr }
%union.anon = type { i64, [8 x i8] }
%struct.t_inputrec = type { i32, i32, i64, i32, i64, i32, i32, i32, i32, i32, i32, i32, i32, i32, i32, i32, double, double, i8, %"class.std::vector", float, float, float, i32, i32, i32, i32, float, float, i32, float, i32, i32, i8, i8, i32, float, i32, i32, i8, %struct.PressureCouplingOptions, [3 x float], [3 x float], i32, float, float, float, float, i32, i32, float, float, float, float, i8, i32, i32, float, float, i32, float, float, i32, %"class.std::unique_ptr.5", i8, %"class.std::unique_ptr.13", i8, %"class.std::unique_ptr.21", i32, float, i32, i8, i32, float, float, float, i32, float, float, i32, float, i32, i32, i32, i32, float, i32, i8, float, i64, i32, i32, float, [2 x i32], [2 x float], float, i8, %"class.std::unique_ptr.29", i8, %"class.std::unique_ptr.37", i8, %"class.std::unique_ptr.45", i32, ptr, i8, ptr, float, [3 x [3 x float]], i32, i32, i32, i32, float, float, float, float, %struct.t_grpopts, i8, i8, i8, i8, ptr, %"class.std::unique_ptr.53" }
%"class.std::vector" = type { %"struct.std::_Vector_base" }
%"struct.std::_Vector_base" = type { %"struct.std::_Vector_base<gmx::MtsLevel, std::allocator<gmx::MtsLevel>>::_Vector_impl" }
%"struct.std::_Vector_base<gmx::MtsLevel, std::allocator<gmx::MtsLevel>>::_Vector_impl" = type { %"struct.std::_Vector_base<gmx::MtsLevel, std::allocator<gmx::MtsLevel>>::_Vector_impl_data" }
%"struct.std::_Vector_base<gmx::MtsLevel, std::allocator<gmx::MtsLevel>>::_Vector_impl_data" = type { ptr, ptr, ptr }
%struct.PressureCouplingOptions = type { i32, i32, i32, float, [3 x [3 x float]], [3 x [3 x float]], i32 }
%"class.std::unique_ptr.5" = type { %"struct.std::__uniq_ptr_data.6" }
%"struct.std::__uniq_ptr_data.6" = type { %"class.std::__uniq_ptr_impl.7" }
%"class.std::__uniq_ptr_impl.7" = type { %"class.std::tuple.8" }
%"class.std::tuple.8" = type { %"struct.std::_Tuple_impl.9" }
%"struct.std::_Tuple_impl.9" = type { %"struct.std::_Head_base.12" }
%"struct.std::_Head_base.12" = type { ptr }
%"class.std::unique_ptr.13" = type { %"struct.std::__uniq_ptr_data.14" }
%"struct.std::__uniq_ptr_data.14" = type { %"class.std::__uniq_ptr_impl.15" }
%"class.std::__uniq_ptr_impl.15" = type { %"class.std::tuple.16" }
%"class.std::tuple.16" = type { %"struct.std::_Tuple_impl.17" }
%"struct.std::_Tuple_impl.17" = type { %"struct.std::_Head_base.20" }
%"struct.std::_Head_base.20" = type { ptr }
%"class.std::unique_ptr.21" = type { %"struct.std::__uniq_ptr_data.22" }
%"struct.std::__uniq_ptr_data.22" = type { %"class.std::__uniq_ptr_impl.23" }
%"class.std::__uniq_ptr_impl.23" = type { %"class.std::tuple.24" }
%"class.std::tuple.24" = type { %"struct.std::_Tuple_impl.25" }
%"struct.std::_Tuple_impl.25" = type { %"struct.std::_Head_base.28" }
%"struct.std::_Head_base.28" = type { ptr }
%"class.std::unique_ptr.29" = type { %"struct.std::__uniq_ptr_data.30" }
%"struct.std::__uniq_ptr_data.30" = type { %"class.std::__uniq_ptr_impl.31" }
%"class.std::__uniq_ptr_impl.31" = type { %"class.std::tuple.32" }
%"class.std::tuple.32" = type { %"struct.std::_Tuple_impl.33" }
%"struct.std::_Tuple_impl.33" = type { %"struct.std::_Head_base.36" }
%"struct.std::_Head_base.36" = type { ptr }
%"class.std::unique_ptr.37" = type { %"struct.std::__uniq_ptr_data.38" }
%"struct.std::__uniq_ptr_data.38" = type { %"class.std::__uniq_ptr_impl.39" }
%"class.std::__uniq_ptr_impl.39" = type { %"class.std::tuple.40" }
%"class.std::tuple.40" = type { %"struct.std::_Tuple_impl.41" }
%"struct.std::_Tuple_impl.41" = type { %"struct.std::_Head_base.44" }
%"struct.std::_Head_base.44" = type { ptr }
%"class.std::unique_ptr.45" = type { %"struct.std::__uniq_ptr_data.46" }
%"struct.std::__uniq_ptr_data.46" = type { %"class.std::__uniq_ptr_impl.47" }
%"class.std::__uniq_ptr_impl.47" = type { %"class.std::tuple.48" }
%"class.std::tuple.48" = type { %"struct.std::_Tuple_impl.49" }
%"struct.std::_Tuple_impl.49" = type { %"struct.std::_Head_base.52" }
%"struct.std::_Head_base.52" = type { ptr }
%struct.t_grpopts = type <{ i32, i32, i32, i32, i32, [4 x i8], ptr, ptr, ptr, ptr, ptr, ptr, ptr, ptr, ptr, ptr, i32, [4 x i8] }>
%"class.std::unique_ptr.53" = type { %"struct.std::__uniq_ptr_data.54" }
%"struct.std::__uniq_ptr_data.54" = type { %"class.std::__uniq_ptr_impl.55" }
%"class.std::__uniq_ptr_impl.55" = type { %"class.std::tuple.56" }
%"class.std::tuple.56" = type { %"struct.std::_Tuple_impl.57" }
%"struct.std::_Tuple_impl.57" = type { %"struct.std::_Head_base.60" }
%"struct.std::_Head_base.60" = type { ptr }

@.str = private unnamed_addr constant [26 x i8] c"PME GPU does not support:\00", align 1
@.str.4 = private unnamed_addr constant [48 x i8] c"Systems that do not use PME for electrostatics.\00", align 1
@.str.5 = private unnamed_addr constant [35 x i8] c"Interpolation orders other than 4.\00", align 1
@.str.6 = private unnamed_addr constant [19 x i8] c"Lennard-Jones PME.\00", align 1
@.str.7 = private unnamed_addr constant [44 x i8] c"Non-dynamical integrator (use md, sd, etc).\00", align 1

; Function Attrs: mustprogress nounwind uwtable
define internal noundef zeroext i1 @_ZL10usingLJPmeRK15VanDerWaalsType(ptr noundef nonnull align 4 dereferenceable(4) %0) #3 {
  %2 = alloca ptr, align 8
  store ptr %0, ptr %2, align 8
  %3 = load ptr, ptr %2, align 8
  %4 = load i32, ptr %3, align 4
  %5 = icmp eq i32 %4, 5
  ret i1 %5
}

; Function Attrs: mustprogress nounwind uwtable
define internal noundef zeroext i1 @_ZL8usingPmeRK22CoulombInteractionType(ptr noundef nonnull align 4 dereferenceable(4) %0) #3 {
  %2 = alloca ptr, align 8
  store ptr %0, ptr %2, align 8
  %3 = load ptr, ptr %2, align 8
  %4 = load i32, ptr %3, align 4
  %5 = icmp eq i32 %4, 3
  br i1 %5, label %22, label %6

6:                                                ; preds = %1
  %7 = load ptr, ptr %2, align 8
  %8 = load i32, ptr %7, align 4
  %9 = icmp eq i32 %8, 14
  br i1 %9, label %22, label %10

10:                                               ; preds = %6
  %11 = load ptr, ptr %2, align 8
  %12 = load i32, ptr %11, align 4
  %13 = icmp eq i32 %12, 13
  br i1 %13, label %22, label %14

14:                                               ; preds = %10
  %15 = load ptr, ptr %2, align 8
  %16 = load i32, ptr %15, align 4
  %17 = icmp eq i32 %16, 15
  br i1 %17, label %22, label %18

18:                                               ; preds = %14
  %19 = load ptr, ptr %2, align 8
  %20 = load i32, ptr %19, align 4
  %21 = icmp eq i32 %20, 5
  br label %22

22:                                               ; preds = %18, %14, %10, %6, %1
  %23 = phi i1 [ true, %14 ], [ true, %10 ], [ true, %6 ], [ true, %1 ], [ %21, %18 ]
  ret i1 %23
}

; Function Attrs: mustprogress uwtable
define noundef zeroext i1 @_Z22pme_gpu_supports_inputRK10t_inputrecPNSt7__cxx1112basic_stringIcSt11char_traitsIcESaIcEEE(ptr noundef nonnull align 8 dereferenceable(856) %0, ptr noundef %1) #0 personality ptr @__gxx_personality_v0 {
  %3 = alloca ptr, align 8
  %4 = alloca ptr, align 8
  %5 = alloca %"class.gmx::MessageStringCollector", align 8
  %6 = alloca ptr, align 8
  %7 = alloca i32, align 4
  %8 = alloca %"class.std::__cxx11::basic_string", align 8
  store ptr %0, ptr %3, align 8
  store ptr %1, ptr %4, align 8
  call void @_ZN3gmx22MessageStringCollectorC1Ev(ptr noundef nonnull align 8 dereferenceable(8) %5)
  invoke void @_ZN3gmx22MessageStringCollector12startContextEPKc(ptr noundef nonnull align 8 dereferenceable(8) %5, ptr noundef @.str)
          to label %9 unwind label %68

9:                                                ; preds = %2
  %10 = load ptr, ptr %3, align 8
  %11 = getelementptr inbounds %struct.t_inputrec, ptr %10, i32 0, i32 48
  %12 = invoke noundef zeroext i1 @_ZL8usingPmeRK22CoulombInteractionType(ptr noundef nonnull align 4 dereferenceable(4) %11)
          to label %13 unwind label %68

13:                                               ; preds = %9
  %14 = xor i1 %12, true
  invoke void @_ZN3gmx22MessageStringCollector8appendIfEbPKc(ptr noundef nonnull align 8 dereferenceable(8) %5, i1 noundef zeroext %14, ptr noundef @.str.4)
          to label %15 unwind label %68

15:                                               ; preds = %13
  %16 = load ptr, ptr %3, align 8
  %17 = getelementptr inbounds %struct.t_inputrec, ptr %16, i32 0, i32 26
  %18 = load i32, ptr %17, align 8
  %19 = icmp ne i32 %18, 4
  invoke void @_ZN3gmx22MessageStringCollector8appendIfEbPKc(ptr noundef nonnull align 8 dereferenceable(8) %5, i1 noundef zeroext %19, ptr noundef @.str.5)
          to label %20 unwind label %68

20:                                               ; preds = %15
  %21 = load ptr, ptr %3, align 8
  %22 = getelementptr inbounds %struct.t_inputrec, ptr %21, i32 0, i32 55
  %23 = invoke noundef zeroext i1 @_ZL10usingLJPmeRK15VanDerWaalsType(ptr noundef nonnull align 4 dereferenceable(4) %22)
          to label %24 unwind label %68

24:                                               ; preds = %20
  invoke void @_ZN3gmx22MessageStringCollector8appendIfEbPKc(ptr noundef nonnull align 8 dereferenceable(8) %5, i1 noundef zeroext %23, ptr noundef @.str.6)
          to label %25 unwind label %68

25:                                               ; preds = %24
  %26 = load ptr, ptr %3, align 8
  %27 = getelementptr inbounds %struct.t_inputrec, ptr %26, i32 0, i32 1
  %28 = load i32, ptr %27, align 4
  %29 = icmp eq i32 %28, 0
  br i1 %29, label %57, label %30

30:                                               ; preds = %25
  %31 = load ptr, ptr %3, align 8
  %32 = getelementptr inbounds %struct.t_inputrec, ptr %31, i32 0, i32 1
  %33 = load i32, ptr %32, align 4
  %34 = icmp eq i32 %33, 10
  br i1 %34, label %57, label %35

35:                                               ; preds = %30
  %36 = load ptr, ptr %3, align 8
  %37 = getelementptr inbounds %struct.t_inputrec, ptr %36, i32 0, i32 1
  %38 = load i32, ptr %37, align 4
  %39 = icmp eq i32 %38, 11
  br i1 %39, label %57, label %40

40:                                               ; preds = %35
  %41 = load ptr, ptr %3, align 8
  %42 = getelementptr inbounds %struct.t_inputrec, ptr %41, i32 0, i32 1
  %43 = load i32, ptr %42, align 4
  %44 = icmp eq i32 %43, 12
  br i1 %44, label %57, label %45

45:                                               ; preds = %40
  %46 = load ptr, ptr %3, align 8
  %47 = getelementptr inbounds %struct.t_inputrec, ptr %46, i32 0, i32 1
  %48 = load i32, ptr %47, align 4
  %49 = icmp eq i32 %48, 9
  br i1 %49, label %55, label %50

50:                                               ; preds = %45
  %51 = load ptr, ptr %3, align 8
  %52 = getelementptr inbounds %struct.t_inputrec, ptr %51, i32 0, i32 1
  %53 = load i32, ptr %52, align 4
  %54 = icmp eq i32 %53, 3
  br label %55

55:                                               ; preds = %50, %45
  %56 = phi i1 [ true, %45 ], [ %54, %50 ]
  br label %57

57:                                               ; preds = %55, %40, %35, %30, %25
  %58 = phi i1 [ true, %40 ], [ true, %35 ], [ true, %30 ], [ true, %25 ], [ %56, %55 ]
  %59 = xor i1 %58, true
  invoke void @_ZN3gmx22MessageStringCollector8appendIfEbPKc(ptr noundef nonnull align 8 dereferenceable(8) %5, i1 noundef zeroext %59, ptr noundef @.str.7)
          to label %60 unwind label %68

60:                                               ; preds = %57
  invoke void @_ZN3gmx22MessageStringCollector13finishContextEv(ptr noundef nonnull align 8 dereferenceable(8) %5)
          to label %61 unwind label %68

61:                                               ; preds = %60
  %62 = load ptr, ptr %4, align 8
  %63 = icmp ne ptr %62, null
  br i1 %63, label %64, label %72

64:                                               ; preds = %61
  invoke void @_ZNK3gmx22MessageStringCollector8toStringB5cxx11Ev(ptr dead_on_unwind writable sret(%"class.std::__cxx11::basic_string") align 8 %8, ptr noundef nonnull align 8 dereferenceable(8) %5)
          to label %65 unwind label %68

65:                                               ; preds = %64
  %66 = load ptr, ptr %4, align 8
  %67 = call noundef nonnull align 8 dereferenceable(32) ptr @_ZNSt7__cxx1112basic_stringIcSt11char_traitsIcESaIcEEaSEOS4_(ptr noundef nonnull align 8 dereferenceable(32) %66, ptr noundef nonnull align 8 dereferenceable(32) %8) #5
  call void @_ZNSt7__cxx1112basic_stringIcSt11char_traitsIcESaIcEED1Ev(ptr noundef nonnull align 8 dereferenceable(32) %8) #5
  br label %72

68:                                               ; preds = %72, %64, %60, %57, %24, %20, %15, %13, %9, %2
  %69 = landingpad { ptr, i32 }
          cleanup
  %70 = extractvalue { ptr, i32 } %69, 0
  store ptr %70, ptr %6, align 8
  %71 = extractvalue { ptr, i32 } %69, 1
  store i32 %71, ptr %7, align 4
  call void @_ZN3gmx22MessageStringCollectorD1Ev(ptr noundef nonnull align 8 dereferenceable(8) %5) #5
  br label %75

72:                                               ; preds = %65, %61
  %73 = invoke noundef zeroext i1 @_ZNK3gmx22MessageStringCollector7isEmptyEv(ptr noundef nonnull align 8 dereferenceable(8) %5)
          to label %74 unwind label %68

74:                                               ; preds = %72
  call void @_ZN3gmx22MessageStringCollectorD1Ev(ptr noundef nonnull align 8 dereferenceable(8) %5) #5
  ret i1 %73

75:                                               ; preds = %68
  %76 = load ptr, ptr %6, align 8
  %77 = load i32, ptr %7, align 4
  %78 = insertvalue { ptr, i32 } poison, ptr %76, 0
  %79 = insertvalue { ptr, i32 } %78, i32 %77, 1
  resume { ptr, i32 } %79
}