; Function Attrs: mustprogress uwtable
define noundef zeroext i1 @_Z22pme_gpu_supports_inputRK10t_inputrecPNSt7__cxx1112basic_stringIcSt11char_traitsIcESaIcEEE(ptr nocapture noundef nonnull readonly align 8 dereferenceable(856) %0, ptr noundef %1) local_unnamed_addr #0 personality ptr @__gxx_personality_v0 {
  %3 = alloca %"class.gmx::MessageStringCollector", align 8
  %4 = alloca %"class.std::__cxx11::basic_string", align 8
  call void @_ZN3gmx22MessageStringCollectorC1Ev(ptr noundef nonnull align 8 dereferenceable(8) %3)
  invoke void @_ZN3gmx22MessageStringCollector12startContextEPKc(ptr noundef nonnull align 8 dereferenceable(8) %3, ptr noundef nonnull @.str)
          to label %_ZL8usingPmeRK22CoulombInteractionType.exit unwind label %24

_ZL8usingPmeRK22CoulombInteractionType.exit:      ; preds = %2
  %5 = getelementptr inbounds i8, ptr %0, i64 340
  %.val = load i32, ptr %5, align 4
  %6 = icmp ugt i32 %.val, 15
  %switch.cast = trunc i32 %.val to i16
  %switch.downshift = lshr i16 8151, %switch.cast
  %switch.masked = trunc i16 %switch.downshift to i1
  %7 = select i1 %6, i1 true, i1 %switch.masked
  invoke void @_ZN3gmx22MessageStringCollector8appendIfEbPKc(ptr noundef nonnull align 8 dereferenceable(8) %3, i1 noundef zeroext %7, ptr noundef nonnull @.str.4)
          to label %8 unwind label %24

8:                                                ; preds = %_ZL8usingPmeRK22CoulombInteractionType.exit
  %9 = getelementptr inbounds i8, ptr %0, i64 152
  %10 = load i32, ptr %9, align 8
  %11 = icmp ne i32 %10, 4
  invoke void @_ZN3gmx22MessageStringCollector8appendIfEbPKc(ptr noundef nonnull align 8 dereferenceable(8) %3, i1 noundef zeroext %11, ptr noundef nonnull @.str.5)
          to label %12 unwind label %24

12:                                               ; preds = %8
  %13 = getelementptr inbounds i8, ptr %0, i64 368
  %.val13 = load i32, ptr %13, align 8
  %14 = icmp eq i32 %.val13, 5
  invoke void @_ZN3gmx22MessageStringCollector8appendIfEbPKc(ptr noundef nonnull align 8 dereferenceable(8) %3, i1 noundef zeroext %14, ptr noundef nonnull @.str.6)
          to label %switch.edge unwind label %24

switch.edge:                                      ; preds = %12
  %15 = getelementptr inbounds i8, ptr %0, i64 4
  %16 = load i32, ptr %15, align 4
  %17 = icmp ugt i32 %16, 12
  %switch.cast15 = trunc i32 %16 to i13
  %switch.downshift17 = lshr i13 502, %switch.cast15
  %switch.masked18 = trunc i13 %switch.downshift17 to i1
  %18 = select i1 %17, i1 true, i1 %switch.masked18
  invoke void @_ZN3gmx22MessageStringCollector8appendIfEbPKc(ptr noundef nonnull align 8 dereferenceable(8) %3, i1 noundef zeroext %18, ptr noundef nonnull @.str.7)
          to label %19 unwind label %24

19:                                               ; preds = %switch.edge
  invoke void @_ZN3gmx22MessageStringCollector13finishContextEv(ptr noundef nonnull align 8 dereferenceable(8) %3)
          to label %20 unwind label %24

20:                                               ; preds = %19
  %.not = icmp eq ptr %1, null
  br i1 %.not, label %26, label %21

21:                                               ; preds = %20
  invoke void @_ZNK3gmx22MessageStringCollector8toStringB5cxx11Ev(ptr dead_on_unwind nonnull writable sret(%"class.std::__cxx11::basic_string") align 8 %4, ptr noundef nonnull align 8 dereferenceable(8) %3)
          to label %22 unwind label %24

22:                                               ; preds = %21
  %23 = call noundef nonnull align 8 dereferenceable(32) ptr @_ZNSt7__cxx1112basic_stringIcSt11char_traitsIcESaIcEEaSEOS4_(ptr noundef nonnull align 8 dereferenceable(32) %1, ptr noundef nonnull align 8 dereferenceable(32) %4) #7
  call void @_ZNSt7__cxx1112basic_stringIcSt11char_traitsIcESaIcEED1Ev(ptr noundef nonnull align 8 dereferenceable(32) %4) #7
  br label %26

24:                                               ; preds = %26, %21, %19, %switch.edge, %12, %8, %_ZL8usingPmeRK22CoulombInteractionType.exit, %2
  %25 = landingpad { ptr, i32 }
          cleanup
  call void @_ZN3gmx22MessageStringCollectorD1Ev(ptr noundef nonnull align 8 dereferenceable(8) %3) #7
  resume { ptr, i32 } %25

26:                                               ; preds = %22, %20
  %27 = invoke noundef zeroext i1 @_ZNK3gmx22MessageStringCollector7isEmptyEv(ptr noundef nonnull align 8 dereferenceable(8) %3)
          to label %28 unwind label %24

28:                                               ; preds = %26
  call void @_ZN3gmx22MessageStringCollectorD1Ev(ptr noundef nonnull align 8 dereferenceable(8) %3) #7
  ret i1 %27
}